Certificate:
    Data:
        Version: 3 (0x2)
        Serial Number: 1 (0x1)
        Signature Algorithm: sha1WithRSAEncryption
        Issuer: C=US, ST=CA, L=SanFrancisco, O=Fort-Funston, CN=Fort-Funston CA/emailAddress=me@myhost.mydomain
        Validity
            Not Before: Dec 20 08:09:46 2018 GMT
            Not After : Dec 17 08:09:46 2028 GMT
        Subject: C=US, ST=CA, L=SanFrancisco, O=Fort-Funston, CN=server/emailAddress=me@myhost.mydomain
        Subject Public Key Info:
            Public Key Algorithm: rsaEncryption
            RSA Public Key: (1024 bit)
                Modulus (1024 bit):
                    00:c0:05:e4:2a:d8:b4:81:7d:c3:1a:d2:e1:d1:8b:
                    32:0e:bd:e7:a3:db:59:70:a8:71:1b:e2:c9:82:f8:
                    67:1e:f7:a4:04:1c:52:4e:3f:af:57:84:6d:7e:8f:
                    4f:38:8d:ec:fd:0c:e7:b3:9e:35:7a:37:69:e7:89:
                    a1:11:78:3f:4a:78:26:56:2f:b6:db:df:9f:07:92:
                    41:93:49:2d:a8:c7:30:15:4f:4e:66:f9:14:10:97:
                    0c:9a:9b:8f:76:f3:44:dc:34:bb:0f:0b:c8:78:32:
                    55:4d:aa:57:a2:1e:a4:34:ce:8a:4b:34:31:3f:55:
                    37:84:9f:d3:f8:8f:f4:65:f7
                Exponent: 65537 (0x10001)
        X509v3 extensions:
            X509v3 Basic Constraints: 
                CA:FALSE
            Netscape Cert Type: 
                SSL Server
            Netscape Comment: 
                Easy-RSA Generated Server Certificate
            X509v3 Subject Key Identifier: 
                4D:B4:72:5F:AA:CB:B1:87:90:19:1B:A5:E2:42:B8:3F:4A:03:A6:62
            X509v3 Authority Key Identifier: 
                keyid:35:DC:44:62:5C:F5:1E:52:1B:8B:37:43:C1:5F:51:50:52:FB:AB:85
                DirName:/C=US/ST=CA/L=SanFrancisco/O=Fort-Funston/CN=Fort-Funston CA/emailAddress=me@myhost.mydomain
                serial:B6:FA:4A:5B:E2:02:EA:72

            X509v3 Extended Key Usage: 
                TLS Web Server Authentication
            X509v3 Key Usage: 
                Digital Signature, Key Encipherment
    Signature Algorithm: sha1WithRSAEncryption
        ad:e7:80:35:9b:b1:98:47:04:60:c5:47:87:4a:04:a5:9a:0b:
        77:53:4c:ec:2e:21:4e:7c:3d:6c:b1:b9:2a:27:76:fe:58:52:
        3f:59:a3:ab:15:80:d4:e2:95:fb:3e:cf:30:67:5e:cb:52:23:
        4f:63:78:e3:8f:77:9d:78:50:2a:89:e8:2a:b6:80:26:47:1f:
        80:b8:0a:f3:ce:d1:37:47:36:70:f1:85:2e:9d:64:d0:76:01:
        a0:eb:40:47:b0:48:75:46:2f:0b:e8:69:fa:d1:d5:6e:43:a4:
        11:41:e6:ca:ac:e2:33:96:63:9a:f7:1d:b5:73:2e:cd:31:0d:
        01:d1
-----BEGIN CERTIFICATE-----
MIID0DCCAzmgAwIBAgIBATANBgkqhkiG9w0BAQUFADCBhTELMAkGA1UEBhMCVVMx
CzAJBgNVBAgTAkNBMRUwEwYDVQQHEwxTYW5GcmFuY2lzY28xFTATBgNVBAoTDEZv
cnQtRnVuc3RvbjEYMBYGA1UEAxMPRm9ydC1GdW5zdG9uIENBMSEwHwYJKoZIhvcN
AQkBFhJtZUBteWhvc3QubXlkb21haW4wHhcNMTgxMjIwMDgwOTQ2WhcNMjgxMjE3
MDgwOTQ2WjB8MQswCQYDVQQGEwJVUzELMAkGA1UECBMCQ0ExFTATBgNVBAcTDFNh
bkZyYW5jaXNjbzEVMBMGA1UEChMMRm9ydC1GdW5zdG9uMQ8wDQYDVQQDEwZzZXJ2
ZXIxITAfBgkqhkiG9w0BCQEWEm1lQG15aG9zdC5teWRvbWFpbjCBnzANBgkqhkiG
9w0BAQEFAAOBjQAwgYkCgYEAwAXkKti0gX3DGtLh0YsyDr3no9tZcKhxG+LJgvhn
HvekBBxSTj+vV4Rtfo9POI3s/Qzns541ejdp54mhEXg/SngmVi+229+fB5JBk0kt
qMcwFU9OZvkUEJcMmpuPdvNE3DS7DwvIeDJVTapXoh6kNM6KSzQxP1U3hJ/T+I/0
ZfcCAwEAAaOCAVYwggFSMAkGA1UdEwQCMAAwEQYJYIZIAYb4QgEBBAQDAgZAMDQG
CWCGSAGG+EIBDQQnFiVFYXN5LVJTQSBHZW5lcmF0ZWQgU2VydmVyIENlcnRpZmlj
YXRlMB0GA1UdDgQWBBRNtHJfqsuxh5AZG6XiQrg/SgOmYjCBugYDVR0jBIGyMIGv
gBQ13ERiXPUeUhuLN0PBX1FQUvurhaGBi6SBiDCBhTELMAkGA1UEBhMCVVMxCzAJ
BgNVBAgTAkNBMRUwEwYDVQQHEwxTYW5GcmFuY2lzY28xFTATBgNVBAoTDEZvcnQt
RnVuc3RvbjEYMBYGA1UEAxMPRm9ydC1GdW5zdG9uIENBMSEwHwYJKoZIhvcNAQkB
FhJtZUBteWhvc3QubXlkb21haW6CCQC2+kpb4gLqcjATBgNVHSUEDDAKBggrBgEF
BQcDATALBgNVHQ8EBAMCBaAwDQYJKoZIhvcNAQEFBQADgYEAreeANZuxmEcEYMVH
h0oEpZoLd1NM7C4hTnw9bLG5Kid2/lhSP1mjqxWA1OKV+z7PMGdey1IjT2N44493
nXhQKonoKraAJkcfgLgK887RN0c2cPGFLp1k0HYBoOtAR7BIdUYvC+hp+tHVbkOk
EUHmyqziM5ZjmvcdtXMuzTENAdE=
-----END CERTIFICATE-----
